target datalayout = "e-m:e-p270:32:32-p271:32:32-p272:64:64-i64:64-i128:128-f80:128-n8:16:32:64-S128"
target triple = "x86_64-pc-linux-gnu"

; Function Attrs: nounwind uwtable
define i32 @memCompare(ptr noundef %0, ptr noundef %1, i32 noundef %2) #0 {
  %4 = alloca i32, align 4
  %5 = alloca ptr, align 8
  %6 = alloca ptr, align 8
  %7 = alloca i32, align 4
  %8 = alloca i32, align 4
  %9 = alloca i32, align 4
  store ptr %0, ptr %5, align 8, !tbaa !3
  store ptr %1, ptr %6, align 8, !tbaa !3
  store i32 %2, ptr %7, align 4, !tbaa !8
  call void @llvm.lifetime.start.p0(i64 4, ptr %8) #7
  %10 = load i32, ptr %7, align 4, !tbaa !8
  %11 = call i32 @Kit_TruthWordNum_64bit(i32 noundef %10)
  %12 = sub nsw i32 %11, 1
  store i32 %12, ptr %8, align 4, !tbaa !8
  br label %13

13:                                               ; preds = %43, %3
  %14 = load i32, ptr %8, align 4, !tbaa !8
  %15 = icmp sge i32 %14, 0
  br i1 %15, label %16, label %46

16:                                               ; preds = %13
  %17 = load ptr, ptr %5, align 8, !tbaa !3
  %18 = load i32, ptr %8, align 4, !tbaa !8
  %19 = sext i32 %18 to i64
  %20 = getelementptr inbounds i64, ptr %17, i64 %19
  %21 = load i64, ptr %20, align 8, !tbaa !10
  %22 = load ptr, ptr %6, align 8, !tbaa !3
  %23 = load i32, ptr %8, align 4, !tbaa !8
  %24 = sext i32 %23 to i64
  %25 = getelementptr inbounds i64, ptr %22, i64 %24
  %26 = load i64, ptr %25, align 8, !tbaa !10
  %27 = icmp eq i64 %21, %26
  br i1 %27, label %28, label %29

28:                                               ; preds = %16
  br label %43

29:                                               ; preds = %16
  %30 = load ptr, ptr %5, align 8, !tbaa !3
  %31 = load i32, ptr %8, align 4, !tbaa !8
  %32 = sext i32 %31 to i64
  %33 = getelementptr inbounds i64, ptr %30, i64 %32
  %34 = load i64, ptr %33, align 8, !tbaa !10
  %35 = load ptr, ptr %6, align 8, !tbaa !3
  %36 = load i32, ptr %8, align 4, !tbaa !8
  %37 = sext i32 %36 to i64
  %38 = getelementptr inbounds i64, ptr %35, i64 %37
  %39 = load i64, ptr %38, align 8, !tbaa !10
  %40 = icmp ugt i64 %34, %39
  br i1 %40, label %41, label %42

41:                                               ; preds = %29
  store i32 1, ptr %4, align 4
  store i32 1, ptr %9, align 4
  br label %47

42:                                               ; preds = %29
  store i32 -1, ptr %4, align 4
  store i32 1, ptr %9, align 4
  br label %47

43:                                               ; preds = %28
  %44 = load i32, ptr %8, align 4, !tbaa !8
  %45 = add nsw i32 %44, -1
  store i32 %45, ptr %8, align 4, !tbaa !8
  br label %13, !llvm.loop !12

46:                                               ; preds = %13
  store i32 0, ptr %4, align 4
  store i32 1, ptr %9, align 4
  br label %47

47:                                               ; preds = %46, %42, %41
  call void @llvm.lifetime.end.p0(i64 4, ptr %8) #7
  %48 = load i32, ptr %4, align 4
  ret i32 %48
}

; Function Attrs: nounwind uwtable
define i32 @minimalFlip(ptr noundef %0, ptr noundef %1, ptr noundef %2, i32 noundef %3, ptr noundef %4) #0 {
  %6 = alloca i32, align 4
  %7 = alloca ptr, align 8
  %8 = alloca ptr, align 8
  %9 = alloca ptr, align 8
  %10 = alloca i32, align 4
  %11 = alloca ptr, align 8
  %12 = alloca i32, align 4
  %13 = alloca i32, align 4
  %14 = alloca i32, align 4
  %15 = alloca i32, align 4
  store ptr %0, ptr %7, align 8, !tbaa !3
  store ptr %1, ptr %8, align 8, !tbaa !3
  store ptr %2, ptr %9, align 8, !tbaa !3
  store i32 %3, ptr %10, align 4, !tbaa !8
  store ptr %4, ptr %11, align 8, !tbaa !32
  call void @llvm.lifetime.start.p0(i64 4, ptr %12) #7
  call void @llvm.lifetime.start.p0(i64 4, ptr %13) #7
  %16 = load ptr, ptr %11, align 8, !tbaa !32
  %17 = load i32, ptr %16, align 4, !tbaa !8
  store i32 %17, ptr %13, align 4, !tbaa !8
  call void @llvm.lifetime.start.p0(i64 4, ptr %14) #7
  %18 = load i32, ptr %10, align 4, !tbaa !8
  %19 = call i32 @Kit_TruthWordNum_64bit(i32 noundef %18)
  %20 = sext i32 %19 to i64
  %21 = mul i64 %20, 8
  %22 = trunc i64 %21 to i32
  store i32 %22, ptr %14, align 4, !tbaa !8
  %23 = load ptr, ptr %8, align 8, !tbaa !3
  %24 = load ptr, ptr %7, align 8, !tbaa !3
  %25 = load i32, ptr %14, align 4, !tbaa !8
  %26 = sext i32 %25 to i64
  call void @llvm.memcpy.p0.p0.i64(ptr align 8 %23, ptr align 8 %24, i64 %26, i1 false)
  %27 = load ptr, ptr %9, align 8, !tbaa !3
  %28 = load ptr, ptr %7, align 8, !tbaa !3
  %29 = load i32, ptr %14, align 4, !tbaa !8
  %30 = sext i32 %29 to i64
  call void @llvm.memcpy.p0.p0.i64(ptr align 8 %27, ptr align 8 %28, i64 %30, i1 false)
  %31 = load ptr, ptr %7, align 8, !tbaa !3
  %32 = load i32, ptr %10, align 4, !tbaa !8
  call void @Kit_TruthChangePhase_64bit(ptr noundef %31, i32 noundef %32, i32 noundef 0)
  %33 = load ptr, ptr %11, align 8, !tbaa !32
  %34 = load i32, ptr %33, align 4, !tbaa !8
  %35 = xor i32 %34, 1
  store i32 %35, ptr %33, align 4, !tbaa !8
  store i32 1, ptr %12, align 4, !tbaa !8
  br label %36

36:                                               ; preds = %69, %5
  %37 = load i32, ptr %12, align 4, !tbaa !8
  %38 = load i32, ptr %10, align 4, !tbaa !8
  %39 = icmp slt i32 %37, %38
  br i1 %39, label %40, label %72

40:                                               ; preds = %36
  %41 = load ptr, ptr %8, align 8, !tbaa !3
  %42 = load ptr, ptr %7, align 8, !tbaa !3
  %43 = load i32, ptr %10, align 4, !tbaa !8
  %44 = call i32 @memCompare(ptr noundef %41, ptr noundef %42, i32 noundef %43)
  %45 = icmp eq i32 %44, 1
  br i1 %45, label %46, label %53

46:                                               ; preds = %40
  %47 = load ptr, ptr %8, align 8, !tbaa !3
  %48 = load ptr, ptr %7, align 8, !tbaa !3
  %49 = load i32, ptr %14, align 4, !tbaa !8
  %50 = sext i32 %49 to i64
  call void @llvm.memcpy.p0.p0.i64(ptr align 8 %47, ptr align 8 %48, i64 %50, i1 false)
  %51 = load ptr, ptr %11, align 8, !tbaa !32
  %52 = load i32, ptr %51, align 4, !tbaa !8
  store i32 %52, ptr %13, align 4, !tbaa !8
  br label %60

53:                                               ; preds = %40
  %54 = load ptr, ptr %7, align 8, !tbaa !3
  %55 = load ptr, ptr %8, align 8, !tbaa !3
  %56 = load i32, ptr %14, align 4, !tbaa !8
  %57 = sext i32 %56 to i64
  call void @llvm.memcpy.p0.p0.i64(ptr align 8 %54, ptr align 8 %55, i64 %57, i1 false)
  %58 = load i32, ptr %13, align 4, !tbaa !8
  %59 = load ptr, ptr %11, align 8, !tbaa !32
  store i32 %58, ptr %59, align 4, !tbaa !8
  br label %60

60:                                               ; preds = %53, %46
  %61 = load ptr, ptr %7, align 8, !tbaa !3
  %62 = load i32, ptr %10, align 4, !tbaa !8
  %63 = load i32, ptr %12, align 4, !tbaa !8
  call void @Kit_TruthChangePhase_64bit(ptr noundef %61, i32 noundef %62, i32 noundef %63)
  %64 = load i32, ptr %12, align 4, !tbaa !8
  %65 = shl i32 1, %64
  %66 = load ptr, ptr %11, align 8, !tbaa !32
  %67 = load i32, ptr %66, align 4, !tbaa !8
  %68 = xor i32 %67, %65
  store i32 %68, ptr %66, align 4, !tbaa !8
  br label %69

69:                                               ; preds = %60
  %70 = load i32, ptr %12, align 4, !tbaa !8
  %71 = add nsw i32 %70, 1
  store i32 %71, ptr %12, align 4, !tbaa !8
  br label %36, !llvm.loop !34

72:                                               ; preds = %36
  %73 = load ptr, ptr %8, align 8, !tbaa !3
  %74 = load ptr, ptr %7, align 8, !tbaa !3
  %75 = load i32, ptr %10, align 4, !tbaa !8
  %76 = call i32 @memCompare(ptr noundef %73, ptr noundef %74, i32 noundef %75)
  %77 = icmp eq i32 %76, -1
  br i1 %77, label %78, label %85

78:                                               ; preds = %72
  %79 = load ptr, ptr %7, align 8, !tbaa !3
  %80 = load ptr, ptr %8, align 8, !tbaa !3
  %81 = load i32, ptr %14, align 4, !tbaa !8
  %82 = sext i32 %81 to i64
  call void @llvm.memcpy.p0.p0.i64(ptr align 8 %79, ptr align 8 %80, i64 %82, i1 false)
  %83 = load i32, ptr %13, align 4, !tbaa !8
  %84 = load ptr, ptr %11, align 8, !tbaa !32
  store i32 %83, ptr %84, align 4, !tbaa !8
  br label %85

85:                                               ; preds = %78, %72
  %86 = load ptr, ptr %7, align 8, !tbaa !3
  %87 = load ptr, ptr %9, align 8, !tbaa !3
  %88 = load i32, ptr %14, align 4, !tbaa !8
  %89 = sext i32 %88 to i64
  %90 = call i32 @memcmp(ptr noundef %86, ptr noundef %87, i64 noundef %89) #8
  %91 = icmp eq i32 %90, 0
  br i1 %91, label %92, label %93

92:                                               ; preds = %85
  store i32 0, ptr %6, align 4
  store i32 1, ptr %15, align 4
  br label %94

93:                                               ; preds = %85
  store i32 1, ptr %6, align 4
  store i32 1, ptr %15, align 4
  br label %94

94:                                               ; preds = %93, %92
  call void @llvm.lifetime.end.p0(i64 4, ptr %14) #7
  call void @llvm.lifetime.end.p0(i64 4, ptr %13) #7
  call void @llvm.lifetime.end.p0(i64 4, ptr %12) #7
  %95 = load i32, ptr %6, align 4
  ret i32 %95
}