; Function Attrs: nounwind uwtable
define range(i32 0, 2) i32 @minimalFlip(ptr noundef %0, ptr noundef captures(none) %1, ptr noundef captures(none) %2, i32 noundef %3, ptr noundef captures(none) %4) local_unnamed_addr #0 {
  %6 = load i32, ptr %4, align 4, !tbaa !29
  %7 = tail call i32 @Kit_TruthWordNum_64bit(i32 noundef %3) #19
  %8 = shl i32 %7, 3
  %9 = sext i32 %8 to i64
  tail call void @llvm.memcpy.p0.p0.i64(ptr align 8 %1, ptr align 8 %0, i64 %9, i1 false)
  tail call void @llvm.memcpy.p0.p0.i64(ptr align 8 %2, ptr align 8 %0, i64 %9, i1 false)
  tail call void @Kit_TruthChangePhase_64bit(ptr noundef %0, i32 noundef %3, i32 noundef 0) #19
  %10 = load i32, ptr %4, align 4, !tbaa !29
  %11 = xor i32 %10, 1
  store i32 %11, ptr %4, align 4, !tbaa !29
  %12 = icmp sgt i32 %3, 1
  br i1 %12, label %.lr.ph, label %._crit_edge

.lr.ph:                                           ; preds = %5, %28
  %.04257 = phi i32 [ %.1, %28 ], [ %6, %5 ]
  %.04356 = phi i32 [ %32, %28 ], [ 1, %5 ]
  %13 = tail call i32 @Kit_TruthWordNum_64bit(i32 noundef %3) #19
  %14 = zext i32 %13 to i64
  br label %15

15:                                               ; preds = %18, %.lr.ph
  %indvars.iv.i = phi i64 [ %19, %18 ], [ %14, %.lr.ph ]
  %16 = trunc nuw i64 %indvars.iv.i to i32
  %17 = icmp sgt i32 %16, 0
  br i1 %17, label %18, label %.loopexit

18:                                               ; preds = %15
  %19 = add nsw i64 %indvars.iv.i, -1
  %20 = getelementptr inbounds nuw i64, ptr %1, i64 %19
  %21 = load i64, ptr %20, align 8, !tbaa !3
  %22 = getelementptr inbounds nuw i64, ptr %0, i64 %19
  %23 = load i64, ptr %22, align 8, !tbaa !3
  %24 = icmp eq i64 %21, %23
  br i1 %24, label %15, label %25, !llvm.loop !7

25:                                               ; preds = %18
  %26 = icmp ugt i64 %21, %23
  br i1 %26, label %memCompare.exit, label %.loopexit

memCompare.exit:                                  ; preds = %25
  tail call void @llvm.memcpy.p0.p0.i64(ptr nonnull align 8 %1, ptr nonnull align 8 %0, i64 %9, i1 false)
  %27 = load i32, ptr %4, align 4, !tbaa !29
  br label %28

.loopexit:                                        ; preds = %15, %25
  tail call void @llvm.memcpy.p0.p0.i64(ptr align 8 %0, ptr align 8 %1, i64 %9, i1 false)
  store i32 %.04257, ptr %4, align 4, !tbaa !29
  br label %28

28:                                               ; preds = %.loopexit, %memCompare.exit
  %.1 = phi i32 [ %27, %memCompare.exit ], [ %.04257, %.loopexit ]
  tail call void @Kit_TruthChangePhase_64bit(ptr noundef %0, i32 noundef %3, i32 noundef %.04356) #19
  %29 = shl nuw i32 1, %.04356
  %30 = load i32, ptr %4, align 4, !tbaa !29
  %31 = xor i32 %30, %29
  store i32 %31, ptr %4, align 4, !tbaa !29
  %32 = add nuw nsw i32 %.04356, 1
  %exitcond.not = icmp eq i32 %32, %3
  br i1 %exitcond.not, label %._crit_edge, label %.lr.ph, !llvm.loop !30

._crit_edge:                                      ; preds = %28, %5
  %.042.lcssa = phi i32 [ %6, %5 ], [ %.1, %28 ]
  %33 = tail call i32 @Kit_TruthWordNum_64bit(i32 noundef %3) #19
  %34 = zext i32 %33 to i64
  br label %35

35:                                               ; preds = %38, %._crit_edge
  %indvars.iv.i46 = phi i64 [ %39, %38 ], [ %34, %._crit_edge ]
  %36 = trunc nuw i64 %indvars.iv.i46 to i32
  %37 = icmp sgt i32 %36, 0
  br i1 %37, label %38, label %memCompare.exit49.thread

38:                                               ; preds = %35
  %39 = add nsw i64 %indvars.iv.i46, -1
  %40 = getelementptr inbounds nuw i64, ptr %1, i64 %39
  %41 = load i64, ptr %40, align 8, !tbaa !3
  %42 = getelementptr inbounds nuw i64, ptr %0, i64 %39
  %43 = load i64, ptr %42, align 8, !tbaa !3
  %44 = icmp eq i64 %41, %43
  br i1 %44, label %35, label %45, !llvm.loop !7

45:                                               ; preds = %38
  %46 = icmp ugt i64 %41, %43
  br i1 %46, label %memCompare.exit49.thread, label %memCompare.exit49

memCompare.exit49:                                ; preds = %45
  tail call void @llvm.memcpy.p0.p0.i64(ptr nonnull align 8 %0, ptr nonnull align 8 %1, i64 %9, i1 false)
  store i32 %.042.lcssa, ptr %4, align 4, !tbaa !29
  br label %memCompare.exit49.thread

memCompare.exit49.thread:                         ; preds = %35, %45, %memCompare.exit49
  %bcmp = tail call i32 @bcmp(ptr %0, ptr %2, i64 %9)
  %47 = icmp ne i32 %bcmp, 0
  %. = zext i1 %47 to i32
  ret i32 %.
}